target datalayout = "e-m:e-p270:32:32-p271:32:32-p272:64:64-i64:64-i128:128-f80:128-n8:16:32:64-S128"
target triple = "x86_64-pc-linux-gnu"

%struct.HTTP2Tap = type { i8 }

@.str.4 = private unnamed_addr constant [18 x i8] c"Unknown type (%d)\00", align 1
@st_str_http2 = internal global ptr @.str, align 8
@st_node_http2_type = internal global i32 -1, align 4

; Function Attrs: null_pointer_is_valid sspstrong uwtable
define internal i32 @http2_stats_tree_packet(ptr noundef %0, ptr noundef %1, ptr noundef %2, ptr noundef %3, i32 noundef %4) #1 {
  %6 = alloca ptr, align 8
  %7 = alloca ptr, align 8
  %8 = alloca ptr, align 8
  %9 = alloca ptr, align 8
  %10 = alloca i32, align 4
  %11 = alloca ptr, align 8
  store ptr %0, ptr %6, align 8
  store ptr %1, ptr %7, align 8
  store ptr %2, ptr %8, align 8
  store ptr %3, ptr %9, align 8
  store i32 %4, ptr %10, align 4
  call void @llvm.lifetime.start.p0(i64 8, ptr %11) #7
  %12 = load ptr, ptr %9, align 8
  store ptr %12, ptr %11, align 8
  %13 = load ptr, ptr %6, align 8
  %14 = load ptr, ptr @st_str_http2, align 8
  %15 = call i32 @stats_tree_manip_node_int(i32 noundef 0, ptr noundef %13, ptr noundef %14, i32 noundef 0, i1 noundef zeroext false, i32 noundef 1)
  %16 = load ptr, ptr %6, align 8
  %17 = load i32, ptr @st_node_http2_type, align 4
  %18 = load ptr, ptr %11, align 8
  %19 = getelementptr inbounds nuw %struct.HTTP2Tap, ptr %18, i32 0, i32 0
  %20 = load i8, ptr %19, align 1
  %21 = zext i8 %20 to i32
  %22 = call ptr @val_to_str(i32 noundef %21, ptr noundef @http2_type_vals, ptr noundef @.str.4)
  %23 = call i32 @stats_tree_tick_pivot(ptr noundef %16, i32 noundef %17, ptr noundef %22)
  call void @llvm.lifetime.end.p0(i64 8, ptr %11) #7
  ret i32 1
}