; Function Attrs: null_pointer_is_valid sspstrong uwtable
define internal noundef i32 @http2_stats_tree_packet(ptr noundef %0, ptr readnone captures(none) %1, ptr readnone captures(none) %2, ptr noundef readonly captures(none) %3, i32 %4) #1 {
  %6 = tail call i32 @stats_tree_manip_node_int(i32 noundef 0, ptr noundef %0, ptr noundef nonnull @.str, i32 noundef 0, i1 noundef zeroext false, i32 noundef 1)
  %7 = load i32, ptr @st_node_http2_type, align 4
  %8 = load i8, ptr %3, align 1
  %9 = zext i8 %8 to i32
  %10 = tail call ptr @val_to_str(i32 noundef %9, ptr noundef nonnull @http2_type_vals, ptr noundef nonnull @.str.4)
  %11 = tail call i32 @stats_tree_tick_pivot(ptr noundef %0, i32 noundef %7, ptr noundef %10)
  ret i32 1
}